target datalayout = "e-m:e-p270:32:32-p271:32:32-p272:64:64-i64:64-i128:128-f80:128-n8:16:32:64-S128"
target triple = "x86_64-pc-linux-gnu"

%struct.TT_FaceRec_ = type { %struct.FT_FaceRec_, %struct.TTC_HeaderRec_, i64, i16, ptr, %struct.TT_Header_, %struct.TT_HoriHeader_, %struct.TT_MaxProfile_, i8, %struct.TT_VertHeader_, i16, %struct.TT_NameTableRec_, %struct.TT_OS2_, %struct.TT_Postscript_, ptr, i64, ptr, ptr, ptr, ptr, ptr, ptr, ptr, ptr, ptr, ptr, ptr, ptr, %struct.TT_Gasp_, %struct.TT_PCLT_, i64, ptr, %struct.TT_Post_NamesRec_, %struct.FT_Palette_Data_, i16, ptr, i8, %struct.FT_Color_, i64, ptr, i64, ptr, i64, ptr, ptr, %struct.FT_Generic_, ptr, i64, i64, i8, i8, ptr, i32, ptr, i32, i32, ptr, i64, i64, i64, ptr, ptr, i64, i32, i64, ptr, ptr, i64, i32, i32, ptr, ptr, i64, i32, i32, i32, %struct.TT_BDFRec_, i64, i64, i64, i64, ptr, ptr, ptr }
%struct.FT_FaceRec_ = type { i64, i64, i64, i64, i64, ptr, ptr, i32, ptr, i32, ptr, %struct.FT_Generic_, %struct.FT_BBox_, i16, i16, i16, i16, i16, i16, i16, i16, ptr, ptr, ptr, ptr, ptr, ptr, %struct.FT_ListRec_, %struct.FT_Generic_, ptr, ptr }
%struct.FT_BBox_ = type { i64, i64, i64, i64 }
%struct.FT_ListRec_ = type { ptr, ptr }
%struct.TTC_HeaderRec_ = type { i64, i64, i64, ptr }
%struct.TT_Header_ = type { i64, i64, i64, i64, i16, i16, [2 x i64], [2 x i64], i16, i16, i16, i16, i16, i16, i16, i16, i16 }
%struct.TT_HoriHeader_ = type { i64, i16, i16, i16, i16, i16, i16, i16, i16, i16, i16, [4 x i16], i16, i16, ptr, ptr }
%struct.TT_MaxProfile_ = type { i64, i16, i16, i16, i16, i16, i16, i16, i16, i16, i16, i16, i16, i16, i16 }
%struct.TT_VertHeader_ = type { i64, i16, i16, i16, i16, i16, i16, i16, i16, i16, i16, [4 x i16], i16, i16, ptr, ptr }
%struct.TT_NameTableRec_ = type { i16, i32, i32, ptr, i32, ptr, ptr }
%struct.TT_OS2_ = type { i16, i16, i16, i16, i16, i16, i16, i16, i16, i16, i16, i16, i16, i16, i16, i16, [10 x i8], i64, i64, i64, i64, [4 x i8], i16, i16, i16, i16, i16, i16, i16, i16, i64, i64, i16, i16, i16, i16, i16, i16, i16 }
%struct.TT_Postscript_ = type { i64, i64, i16, i16, i64, i64, i64, i64, i64 }
%struct.TT_Gasp_ = type { i16, i16, ptr }
%struct.TT_PCLT_ = type { i64, i64, i16, i16, i16, i16, i16, i16, [16 x i8], [8 x i8], [6 x i8], i8, i8, i8, i8 }
%struct.TT_Post_NamesRec_ = type { i8, i16, i16, ptr, ptr }
%struct.FT_Palette_Data_ = type { i16, ptr, ptr, i16, ptr }
%struct.FT_Color_ = type { i8, i8, i8, i8 }
%struct.FT_Generic_ = type { ptr, ptr }
%struct.TT_BDFRec_ = type { ptr, ptr, ptr, i64, i32, i8 }
%struct.CFF_FontRec_ = type { ptr, ptr, ptr, i64, i32, i32, i8, i8, i8, i32, i8, %struct.CFF_IndexRec_, %struct.CFF_IndexRec_, %struct.CFF_IndexRec_, %struct.CFF_EncodingRec_, %struct.CFF_CharsetRec_, %struct.CFF_IndexRec_, %struct.CFF_IndexRec_, %struct.CFF_IndexRec_, %struct.CFF_IndexRec_, ptr, ptr, i32, ptr, ptr, i64, %struct.CFF_SubFontRec_, i32, [256 x ptr], %struct.CFF_FDSelectRec_, ptr, ptr, ptr, ptr, ptr, ptr, %struct.FT_Generic_, %struct.CFF_VStoreRec_, ptr }
%struct.CFF_EncodingRec_ = type { i32, i64, i32, [256 x i16], [256 x i16] }
%struct.CFF_CharsetRec_ = type { i32, i64, ptr, ptr, i32, i32 }
%struct.CFF_IndexRec_ = type { ptr, i64, i32, i32, i8, i64, i64, ptr, ptr }
%struct.CFF_SubFontRec_ = type { %struct.CFF_FontRecDictRec_, %struct.CFF_PrivateRec_, %struct.CFF_BlendRec_, i32, ptr, ptr, ptr, i32, i32, %struct.CFF_IndexRec_, ptr, i32 }
%struct.CFF_FontRecDictRec_ = type { i32, i32, i32, i32, i32, i32, i8, i64, i64, i64, i32, i32, %struct.FT_Matrix_, i8, i64, %struct.FT_Vector_, i64, %struct.FT_BBox_, i64, i64, i64, i64, i64, i64, i64, i32, i32, i32, i64, i64, i64, i64, i64, i64, i64, i64, i32, i16, i16, i64, i32 }
%struct.FT_Matrix_ = type { i64, i64, i64, i64 }
%struct.FT_Vector_ = type { i64, i64 }
%struct.CFF_PrivateRec_ = type { i8, i8, i8, i8, [14 x i64], [10 x i64], [14 x i64], [10 x i64], i64, i64, i64, i64, i64, i8, i8, [13 x i64], [13 x i64], i8, i64, i32, i32, i64, i64, i64, i64, i64, i32, ptr }
%struct.CFF_BlendRec_ = type { i8, i8, ptr, i32, i32, ptr, i32, ptr }
%struct.CFF_FDSelectRec_ = type { i8, i32, ptr, i32, i32, i32, i8 }
%struct.CFF_VStoreRec_ = type { i32, ptr, i16, i32, ptr }
%struct.SFNT_Interface_ = type { ptr, ptr, ptr, ptr, ptr, ptr, ptr, ptr, ptr, ptr, ptr, ptr, ptr, ptr, ptr, ptr, ptr, ptr, ptr, ptr, ptr, ptr, ptr, ptr, ptr, ptr, ptr, ptr, ptr, ptr, ptr, ptr, ptr, ptr, ptr, ptr, ptr, ptr, ptr, ptr, ptr, ptr, ptr, ptr, ptr, ptr, ptr, ptr }
%struct.FT_SizeRec_ = type { ptr, %struct.FT_Generic_, %struct.FT_Size_Metrics_, ptr }
%struct.FT_Size_Metrics_ = type { i16, i16, i64, i64, i64, i64, i64, i64 }
%struct.PSH_Globals_FuncsRec_ = type { ptr, ptr, ptr }
%struct.CFF_InternalRec_ = type { ptr, [256 x ptr] }
%struct.FT_Size_InternalRec_ = type { ptr, i32, %struct.FT_Size_Metrics_ }
%struct.CFF_SizeRec_ = type { %struct.FT_SizeRec_, i64 }
%struct.PSHinter_Interface_ = type { ptr, ptr, ptr }

@.str.16 = private unnamed_addr constant [9 x i8] c"pshinter\00", align 1

; Function Attrs: nounwind uwtable
define internal ptr @cff_size_get_globals_funcs(ptr noundef %0) #0 {
  %2 = alloca ptr, align 8
  %3 = alloca ptr, align 8
  %4 = alloca ptr, align 8
  %5 = alloca ptr, align 8
  %6 = alloca ptr, align 8
  store ptr %0, ptr %2, align 8
  %7 = load ptr, ptr %2, align 8
  %8 = getelementptr inbounds %struct.CFF_SizeRec_, ptr %7, i32 0, i32 0
  %9 = getelementptr inbounds %struct.FT_SizeRec_, ptr %8, i32 0, i32 0
  %10 = load ptr, ptr %9, align 8
  store ptr %10, ptr %3, align 8
  %11 = load ptr, ptr %3, align 8
  %12 = getelementptr inbounds %struct.TT_FaceRec_, ptr %11, i32 0, i32 45
  %13 = getelementptr inbounds %struct.FT_Generic_, ptr %12, i32 0, i32 0
  %14 = load ptr, ptr %13, align 8
  store ptr %14, ptr %4, align 8
  %15 = load ptr, ptr %4, align 8
  %16 = getelementptr inbounds %struct.CFF_FontRec_, ptr %15, i32 0, i32 30
  %17 = load ptr, ptr %16, align 8
  store ptr %17, ptr %5, align 8
  %18 = load ptr, ptr %4, align 8
  %19 = getelementptr inbounds %struct.CFF_FontRec_, ptr %18, i32 0, i32 0
  %20 = load ptr, ptr %19, align 8
  %21 = call ptr @FT_Get_Module(ptr noundef %20, ptr noundef @.str.16)
  store ptr %21, ptr %6, align 8
  %22 = load ptr, ptr %6, align 8
  %23 = icmp ne ptr %22, null
  br i1 %23, label %24, label %38

24:                                               ; preds = %1
  %25 = load ptr, ptr %5, align 8
  %26 = icmp ne ptr %25, null
  br i1 %26, label %27, label %38

27:                                               ; preds = %24
  %28 = load ptr, ptr %5, align 8
  %29 = getelementptr inbounds %struct.PSHinter_Interface_, ptr %28, i32 0, i32 0
  %30 = load ptr, ptr %29, align 8
  %31 = icmp ne ptr %30, null
  br i1 %31, label %32, label %38

32:                                               ; preds = %27
  %33 = load ptr, ptr %5, align 8
  %34 = getelementptr inbounds %struct.PSHinter_Interface_, ptr %33, i32 0, i32 0
  %35 = load ptr, ptr %34, align 8
  %36 = load ptr, ptr %6, align 8
  %37 = call ptr %35(ptr noundef %36)
  br label %39

38:                                               ; preds = %27, %24, %1
  br label %39

39:                                               ; preds = %38, %32
  %40 = phi ptr [ %37, %32 ], [ null, %38 ]
  ret ptr %40
}

; Function Attrs: nounwind uwtable
define internal i32 @cff_size_request(ptr noundef %0, ptr noundef %1) #0 {
  %3 = alloca i32, align 4
  %4 = alloca ptr, align 8
  %5 = alloca ptr, align 8
  %6 = alloca i32, align 4
  %7 = alloca ptr, align 8
  %8 = alloca ptr, align 8
  %9 = alloca ptr, align 8
  %10 = alloca ptr, align 8
  %11 = alloca i64, align 8
  %12 = alloca ptr, align 8
  %13 = alloca ptr, align 8
  %14 = alloca ptr, align 8
  %15 = alloca i64, align 8
  %16 = alloca i32, align 4
  %17 = alloca ptr, align 8
  %18 = alloca i64, align 8
  %19 = alloca i64, align 8
  %20 = alloca i64, align 8
  store ptr %0, ptr %4, align 8
  store ptr %1, ptr %5, align 8
  %21 = load ptr, ptr %4, align 8
  store ptr %21, ptr %7, align 8
  %22 = load ptr, ptr %4, align 8
  %23 = getelementptr inbounds %struct.FT_SizeRec_, ptr %22, i32 0, i32 0
  %24 = load ptr, ptr %23, align 8
  %25 = getelementptr inbounds %struct.FT_FaceRec_, ptr %24, i32 0, i32 2
  %26 = load i64, ptr %25, align 8
  %27 = and i64 %26, 2
  %28 = icmp ne i64 %27, 0
  br i1 %28, label %29, label %51

29:                                               ; preds = %2
  %30 = load ptr, ptr %4, align 8
  %31 = getelementptr inbounds %struct.FT_SizeRec_, ptr %30, i32 0, i32 0
  %32 = load ptr, ptr %31, align 8
  store ptr %32, ptr %9, align 8
  %33 = load ptr, ptr %9, align 8
  %34 = getelementptr inbounds %struct.TT_FaceRec_, ptr %33, i32 0, i32 22
  %35 = load ptr, ptr %34, align 8
  store ptr %35, ptr %10, align 8
  %36 = load ptr, ptr %10, align 8
  %37 = getelementptr inbounds %struct.SFNT_Interface_, ptr %36, i32 0, i32 28
  %38 = load ptr, ptr %37, align 8
  %39 = load ptr, ptr %9, align 8
  %40 = load ptr, ptr %5, align 8
  %41 = call i32 %38(ptr noundef %39, ptr noundef %40, ptr noundef %11)
  %42 = icmp ne i32 %41, 0
  br i1 %42, label %43, label %46

43:                                               ; preds = %29
  %44 = load ptr, ptr %7, align 8
  %45 = getelementptr inbounds %struct.CFF_SizeRec_, ptr %44, i32 0, i32 1
  store i64 4294967295, ptr %45, align 8
  br label %50

46:                                               ; preds = %29
  %47 = load ptr, ptr %4, align 8
  %48 = load i64, ptr %11, align 8
  %49 = call i32 @cff_size_select(ptr noundef %47, i64 noundef %48)
  store i32 %49, ptr %3, align 4
  br label %162

50:                                               ; preds = %43
  br label %51

51:                                               ; preds = %50, %2
  %52 = load ptr, ptr %4, align 8
  %53 = getelementptr inbounds %struct.FT_SizeRec_, ptr %52, i32 0, i32 0
  %54 = load ptr, ptr %53, align 8
  %55 = load ptr, ptr %5, align 8
  %56 = call i32 @FT_Request_Metrics(ptr noundef %54, ptr noundef %55)
  store i32 %56, ptr %6, align 4
  %57 = load i32, ptr %6, align 4
  %58 = icmp ne i32 %57, 0
  br i1 %58, label %59, label %60

59:                                               ; preds = %51
  br label %160

60:                                               ; preds = %51
  %61 = load ptr, ptr %7, align 8
  %62 = call ptr @cff_size_get_globals_funcs(ptr noundef %61)
  store ptr %62, ptr %8, align 8
  %63 = load ptr, ptr %8, align 8
  %64 = icmp ne ptr %63, null
  br i1 %64, label %65, label %159

65:                                               ; preds = %60
  %66 = load ptr, ptr %4, align 8
  %67 = getelementptr inbounds %struct.FT_SizeRec_, ptr %66, i32 0, i32 0
  %68 = load ptr, ptr %67, align 8
  store ptr %68, ptr %12, align 8
  %69 = load ptr, ptr %12, align 8
  %70 = getelementptr inbounds %struct.TT_FaceRec_, ptr %69, i32 0, i32 45
  %71 = getelementptr inbounds %struct.FT_Generic_, ptr %70, i32 0, i32 0
  %72 = load ptr, ptr %71, align 8
  store ptr %72, ptr %13, align 8
  %73 = load ptr, ptr %4, align 8
  %74 = getelementptr inbounds %struct.FT_SizeRec_, ptr %73, i32 0, i32 3
  %75 = load ptr, ptr %74, align 8
  %76 = getelementptr inbounds %struct.FT_Size_InternalRec_, ptr %75, i32 0, i32 0
  %77 = load ptr, ptr %76, align 8
  store ptr %77, ptr %14, align 8
  %78 = load ptr, ptr %13, align 8
  %79 = getelementptr inbounds %struct.CFF_FontRec_, ptr %78, i32 0, i32 26
  %80 = getelementptr inbounds %struct.CFF_SubFontRec_, ptr %79, i32 0, i32 0
  %81 = getelementptr inbounds %struct.CFF_FontRecDictRec_, ptr %80, i32 0, i32 14
  %82 = load i64, ptr %81, align 8
  store i64 %82, ptr %15, align 8
  %83 = load ptr, ptr %8, align 8
  %84 = getelementptr inbounds %struct.PSH_Globals_FuncsRec_, ptr %83, i32 0, i32 1
  %85 = load ptr, ptr %84, align 8
  %86 = load ptr, ptr %14, align 8
  %87 = getelementptr inbounds %struct.CFF_InternalRec_, ptr %86, i32 0, i32 0
  %88 = load ptr, ptr %87, align 8
  %89 = load ptr, ptr %4, align 8
  %90 = getelementptr inbounds %struct.FT_SizeRec_, ptr %89, i32 0, i32 2
  %91 = getelementptr inbounds %struct.FT_Size_Metrics_, ptr %90, i32 0, i32 2
  %92 = load i64, ptr %91, align 8
  %93 = load ptr, ptr %4, align 8
  %94 = getelementptr inbounds %struct.FT_SizeRec_, ptr %93, i32 0, i32 2
  %95 = getelementptr inbounds %struct.FT_Size_Metrics_, ptr %94, i32 0, i32 3
  %96 = load i64, ptr %95, align 8
  call void %85(ptr noundef %88, i64 noundef %92, i64 noundef %96, i64 noundef 0, i64 noundef 0)
  %97 = load ptr, ptr %13, align 8
  %98 = getelementptr inbounds %struct.CFF_FontRec_, ptr %97, i32 0, i32 27
  %99 = load i32, ptr %98, align 8
  store i32 %99, ptr %16, align 4
  br label %100

100:                                              ; preds = %155, %65
  %101 = load i32, ptr %16, align 4
  %102 = icmp ugt i32 %101, 0
  br i1 %102, label %103, label %158

103:                                              ; preds = %100
  %104 = load ptr, ptr %13, align 8
  %105 = getelementptr inbounds %struct.CFF_FontRec_, ptr %104, i32 0, i32 28
  %106 = load i32, ptr %16, align 4
  %107 = sub i32 %106, 1
  %108 = zext i32 %107 to i64
  %109 = getelementptr inbounds [256 x ptr], ptr %105, i64 0, i64 %108
  %110 = load ptr, ptr %109, align 8
  store ptr %110, ptr %17, align 8
  %111 = load ptr, ptr %17, align 8
  %112 = getelementptr inbounds %struct.CFF_SubFontRec_, ptr %111, i32 0, i32 0
  %113 = getelementptr inbounds %struct.CFF_FontRecDictRec_, ptr %112, i32 0, i32 14
  %114 = load i64, ptr %113, align 8
  store i64 %114, ptr %18, align 8
  %115 = load i64, ptr %15, align 8
  %116 = load i64, ptr %18, align 8
  %117 = icmp ne i64 %115, %116
  br i1 %117, label %118, label %133

118:                                              ; preds = %103
  %119 = load ptr, ptr %4, align 8
  %120 = getelementptr inbounds %struct.FT_SizeRec_, ptr %119, i32 0, i32 2
  %121 = getelementptr inbounds %struct.FT_Size_Metrics_, ptr %120, i32 0, i32 2
  %122 = load i64, ptr %121, align 8
  %123 = load i64, ptr %15, align 8
  %124 = load i64, ptr %18, align 8
  %125 = call i64 @FT_MulDiv(i64 noundef %122, i64 noundef %123, i64 noundef %124)
  store i64 %125, ptr %19, align 8
  %126 = load ptr, ptr %4, align 8
  %127 = getelementptr inbounds %struct.FT_SizeRec_, ptr %126, i32 0, i32 2
  %128 = getelementptr inbounds %struct.FT_Size_Metrics_, ptr %127, i32 0, i32 3
  %129 = load i64, ptr %128, align 8
  %130 = load i64, ptr %15, align 8
  %131 = load i64, ptr %18, align 8
  %132 = call i64 @FT_MulDiv(i64 noundef %129, i64 noundef %130, i64 noundef %131)
  store i64 %132, ptr %20, align 8
  br label %142

133:                                              ; preds = %103
  %134 = load ptr, ptr %4, align 8
  %135 = getelementptr inbounds %struct.FT_SizeRec_, ptr %134, i32 0, i32 2
  %136 = getelementptr inbounds %struct.FT_Size_Metrics_, ptr %135, i32 0, i32 2
  %137 = load i64, ptr %136, align 8
  store i64 %137, ptr %19, align 8
  %138 = load ptr, ptr %4, align 8
  %139 = getelementptr inbounds %struct.FT_SizeRec_, ptr %138, i32 0, i32 2
  %140 = getelementptr inbounds %struct.FT_Size_Metrics_, ptr %139, i32 0, i32 3
  %141 = load i64, ptr %140, align 8
  store i64 %141, ptr %20, align 8
  br label %142

142:                                              ; preds = %133, %118
  %143 = load ptr, ptr %8, align 8
  %144 = getelementptr inbounds %struct.PSH_Globals_FuncsRec_, ptr %143, i32 0, i32 1
  %145 = load ptr, ptr %144, align 8
  %146 = load ptr, ptr %14, align 8
  %147 = getelementptr inbounds %struct.CFF_InternalRec_, ptr %146, i32 0, i32 1
  %148 = load i32, ptr %16, align 4
  %149 = sub i32 %148, 1
  %150 = zext i32 %149 to i64
  %151 = getelementptr inbounds [256 x ptr], ptr %147, i64 0, i64 %150
  %152 = load ptr, ptr %151, align 8
  %153 = load i64, ptr %19, align 8
  %154 = load i64, ptr %20, align 8
  call void %145(ptr noundef %152, i64 noundef %153, i64 noundef %154, i64 noundef 0, i64 noundef 0)
  br label %155

155:                                              ; preds = %142
  %156 = load i32, ptr %16, align 4
  %157 = add i32 %156, -1
  store i32 %157, ptr %16, align 4
  br label %100, !llvm.loop !15

158:                                              ; preds = %100
  br label %159

159:                                              ; preds = %158, %60
  br label %160

160:                                              ; preds = %159, %59
  %161 = load i32, ptr %6, align 4
  store i32 %161, ptr %3, align 4
  br label %162

162:                                              ; preds = %160, %46
  %163 = load i32, ptr %3, align 4
  ret i32 %163
}