; Function Attrs: nounwind uwtable
define internal i32 @cff_size_request(ptr nocapture noundef %0, ptr noundef %1) #4 {
  %3 = alloca i64, align 8
  %4 = load ptr, ptr %0, align 8
  %5 = getelementptr inbounds i8, ptr %4, i64 16
  %6 = load i64, ptr %5, align 8
  %7 = and i64 %6, 2
  %.not = icmp eq i64 %7, 0
  br i1 %.not, label %19, label %8

8:                                                ; preds = %2
  %9 = getelementptr inbounds i8, ptr %4, i64 880
  %10 = load ptr, ptr %9, align 8
  %11 = getelementptr inbounds i8, ptr %10, i64 224
  %12 = load ptr, ptr %11, align 8
  %13 = call i32 %12(ptr noundef nonnull %4, ptr noundef %1, ptr noundef nonnull %3) #20
  %.not50 = icmp eq i32 %13, 0
  br i1 %.not50, label %16, label %14

14:                                               ; preds = %8
  %15 = getelementptr inbounds i8, ptr %0, i64 88
  store i64 4294967295, ptr %15, align 8
  %.pre = load ptr, ptr %0, align 8
  br label %19

16:                                               ; preds = %8
  %17 = load i64, ptr %3, align 8
  %18 = call i32 @cff_size_select(ptr noundef nonnull %0, i64 noundef %17)
  br label %cff_size_get_globals_funcs.exit.thread

19:                                               ; preds = %14, %2
  %20 = phi ptr [ %.pre, %14 ], [ %4, %2 ]
  %21 = call i32 @FT_Request_Metrics(ptr noundef %20, ptr noundef %1) #20
  %.not51 = icmp eq i32 %21, 0
  br i1 %.not51, label %22, label %cff_size_get_globals_funcs.exit.thread

22:                                               ; preds = %19
  %.val = load ptr, ptr %0, align 8
  %23 = getelementptr i8, ptr %.val, i64 1168
  %.val.val = load ptr, ptr %23, align 8
  %.val.val.val = load ptr, ptr %.val.val, align 8
  %24 = getelementptr i8, ptr %.val.val, i64 4952
  %.val.val.val55 = load ptr, ptr %24, align 8
  %25 = call ptr @FT_Get_Module(ptr noundef %.val.val.val, ptr noundef nonnull @.str.16) #20
  %26 = icmp ne ptr %25, null
  %27 = icmp ne ptr %.val.val.val55, null
  %or.cond.i = select i1 %26, i1 %27, i1 false
  br i1 %or.cond.i, label %28, label %cff_size_get_globals_funcs.exit.thread

28:                                               ; preds = %22
  %29 = load ptr, ptr %.val.val.val55, align 8
  %.not.i = icmp eq ptr %29, null
  br i1 %.not.i, label %cff_size_get_globals_funcs.exit.thread, label %cff_size_get_globals_funcs.exit

cff_size_get_globals_funcs.exit:                  ; preds = %28
  %30 = call ptr %29(ptr noundef nonnull %25) #20
  %.not52 = icmp eq ptr %30, null
  br i1 %.not52, label %cff_size_get_globals_funcs.exit.thread, label %31

31:                                               ; preds = %cff_size_get_globals_funcs.exit
  %32 = load ptr, ptr %0, align 8
  %33 = getelementptr inbounds i8, ptr %32, i64 1168
  %34 = load ptr, ptr %33, align 8
  %35 = getelementptr inbounds i8, ptr %0, i64 80
  %36 = load ptr, ptr %35, align 8
  %37 = load ptr, ptr %36, align 8
  %38 = getelementptr inbounds i8, ptr %34, i64 1744
  %39 = load i64, ptr %38, align 8
  %40 = getelementptr inbounds i8, ptr %30, i64 8
  %41 = load ptr, ptr %40, align 8
  %42 = load ptr, ptr %37, align 8
  %43 = getelementptr inbounds i8, ptr %0, i64 32
  %44 = load i64, ptr %43, align 8
  %45 = getelementptr inbounds i8, ptr %0, i64 40
  %46 = load i64, ptr %45, align 8
  call void %41(ptr noundef %42, i64 noundef %44, i64 noundef %46, i64 noundef 0, i64 noundef 0) #20
  %47 = getelementptr inbounds i8, ptr %34, i64 2864
  %48 = load i32, ptr %47, align 8
  %.not5357 = icmp eq i32 %48, 0
  br i1 %.not5357, label %cff_size_get_globals_funcs.exit.thread, label %.lr.ph

.lr.ph:                                           ; preds = %31
  %49 = getelementptr inbounds i8, ptr %34, i64 2872
  %50 = getelementptr inbounds i8, ptr %37, i64 8
  %51 = zext i32 %48 to i64
  br label %52

52:                                               ; preds = %.lr.ph, %65
  %indvars.iv = phi i64 [ %51, %.lr.ph ], [ %53, %65 ]
  %53 = add nsw i64 %indvars.iv, -1
  %54 = getelementptr inbounds [256 x ptr], ptr %49, i64 0, i64 %53
  %55 = load ptr, ptr %54, align 8
  %56 = getelementptr inbounds i8, ptr %55, i64 104
  %57 = load i64, ptr %56, align 8
  %.not54 = icmp eq i64 %39, %57
  %58 = load i64, ptr %43, align 8
  br i1 %.not54, label %63, label %59

59:                                               ; preds = %52
  %60 = call i64 @FT_MulDiv(i64 noundef %58, i64 noundef %39, i64 noundef %57) #20
  %61 = load i64, ptr %45, align 8
  %62 = call i64 @FT_MulDiv(i64 noundef %61, i64 noundef %39, i64 noundef %57) #20
  br label %65

63:                                               ; preds = %52
  %64 = load i64, ptr %45, align 8
  br label %65

65:                                               ; preds = %63, %59
  %.044 = phi i64 [ %60, %59 ], [ %58, %63 ]
  %.0 = phi i64 [ %62, %59 ], [ %64, %63 ]
  %66 = load ptr, ptr %40, align 8
  %67 = getelementptr inbounds [256 x ptr], ptr %50, i64 0, i64 %53
  %68 = load ptr, ptr %67, align 8
  call void %66(ptr noundef %68, i64 noundef %.044, i64 noundef %.0, i64 noundef 0, i64 noundef 0) #20
  %.not53.wide = icmp eq i64 %53, 0
  br i1 %.not53.wide, label %cff_size_get_globals_funcs.exit.thread, label %52, !llvm.loop !18

cff_size_get_globals_funcs.exit.thread:           ; preds = %65, %31, %22, %28, %19, %cff_size_get_globals_funcs.exit, %16
  %.045 = phi i32 [ 0, %16 ], [ 0, %cff_size_get_globals_funcs.exit ], [ %21, %19 ], [ 0, %28 ], [ 0, %22 ], [ 0, %31 ], [ 0, %65 ]
  ret i32 %.045
}